; Function Attrs: mustprogress nofree norecurse nosync nounwind willreturn memory(read, inaccessiblemem: none) uwtable
define dso_local range(i64 0, 8589934592) i64 @_ZNK4llvm12DIExpression10isConstantEv(ptr nocapture noundef nonnull readonly align 8 dereferenceable(40) %0) local_unnamed_addr #10 align 2 {
  %2 = getelementptr inbounds nuw i8, ptr %0, i64 16
  %3 = getelementptr inbounds i8, ptr %0, i64 24
  %4 = load ptr, ptr %3, align 8
  %5 = load ptr, ptr %2, align 8
  %6 = ptrtoint ptr %4 to i64
  %7 = ptrtoint ptr %5 to i64
  %8 = sub i64 %6, %7
  %9 = lshr exact i64 %8, 3
  %10 = trunc i64 %9 to i32
  switch i32 %10, label %.thread14 [
    i32 2, label %.thread12
    i32 3, label %11
    i32 6, label %11
  ]

11:                                               ; preds = %1, %1
  %12 = load i64, ptr %5, align 8
  %13 = and i64 %12, -2
  %switch = icmp eq i64 %13, 16
  br i1 %switch, label %.thread, label %.thread14

.thread12:                                        ; preds = %1
  %14 = load i64, ptr %5, align 8
  switch i64 %14, label %.thread14.fold.split [
    i64 17, label %.thread14
    i64 16, label %.thread11
  ]

.thread:                                          ; preds = %11
  switch i32 %10, label %.thread11 [
    i32 3, label %15
    i32 6, label %18
  ]

15:                                               ; preds = %.thread
  %16 = getelementptr inbounds i8, ptr %5, i64 16
  %17 = load i64, ptr %16, align 8
  %.not5 = icmp eq i64 %17, 159
  br i1 %.not5, label %.thread11, label %.thread14

18:                                               ; preds = %.thread
  %19 = getelementptr inbounds i8, ptr %5, i64 16
  %20 = load i64, ptr %19, align 8
  %.not6 = icmp eq i64 %20, 159
  br i1 %.not6, label %21, label %.thread14

21:                                               ; preds = %18
  %22 = getelementptr inbounds i8, ptr %5, i64 24
  %23 = load i64, ptr %22, align 8
  %.not7 = icmp eq i64 %23, 4096
  br i1 %.not7, label %.thread11, label %.thread14

.thread11:                                        ; preds = %.thread, %.thread12, %15, %21
  %24 = phi i64 [ %12, %21 ], [ %12, %15 ], [ %14, %.thread12 ], [ %12, %.thread ]
  %25 = icmp eq i64 %24, 16
  %26 = zext i1 %25 to i64
  br label %.thread14

.thread14.fold.split:                             ; preds = %.thread12
  br label %.thread14

.thread14:                                        ; preds = %11, %1, %.thread12, %.thread14.fold.split, %15, %18, %21, %.thread11
  %.sroa.0.0 = phi i64 [ %26, %.thread11 ], [ 0, %21 ], [ 0, %18 ], [ 0, %15 ], [ 0, %.thread12 ], [ 0, %11 ], [ 0, %.thread14.fold.split ], [ 0, %1 ]
  %.sroa.3.0 = phi i64 [ 4294967296, %.thread11 ], [ 0, %21 ], [ 0, %18 ], [ 0, %15 ], [ 4294967296, %.thread12 ], [ 0, %11 ], [ 0, %.thread14.fold.split ], [ 0, %1 ]
  %.sroa.0.0.insert.insert = or disjoint i64 %.sroa.3.0, %.sroa.0.0
  ret i64 %.sroa.0.0.insert.insert
}